
power_led.elf:     file format elf32-littlearm

Sections:
Idx Name          Size      VMA       LMA       File off  Algn
  0 .isr_vector   00000188  08000000  08000000  00001000  2**0
                  CONTENTS, ALLOC, LOAD, READONLY, DATA
  1 .text         000003ac  08000188  08000188  00001188  2**2
                  CONTENTS, ALLOC, LOAD, READONLY, CODE
  2 .rodata       00000000  08000534  0800053c  0000153c  2**0
                  CONTENTS, ALLOC, LOAD, DATA
  3 .ARM.extab    00000000  08000534  08000534  0000153c  2**0
                  CONTENTS, READONLY
  4 .ARM          00000000  08000534  08000534  0000153c  2**0
                  CONTENTS, READONLY
  5 .preinit_array 00000000  08000534  0800053c  0000153c  2**0
                  CONTENTS, ALLOC, LOAD, DATA
  6 .init_array   00000004  08000534  08000534  00001534  2**2
                  CONTENTS, ALLOC, LOAD, READONLY, DATA
  7 .fini_array   00000004  08000538  08000538  00001538  2**2
                  CONTENTS, ALLOC, LOAD, READONLY, DATA
  8 .data         00000000  20000000  20000000  0000153c  2**0
                  CONTENTS, ALLOC, LOAD, DATA
  9 .ccmram       00000000  10000000  10000000  0000153c  2**0
                  CONTENTS
 10 .bss          0000001c  20000000  20000000  00002000  2**2
                  ALLOC
 11 ._user_heap_stack 00000604  2000001c  2000001c  00002000  2**0
                  ALLOC
 12 .ARM.attributes 00000030  00000000  00000000  0000153c  2**0
                  CONTENTS, READONLY
 13 .debug_info   00000c27  00000000  00000000  0000156c  2**0
                  CONTENTS, READONLY, DEBUGGING, OCTETS
 14 .debug_abbrev 000003f9  00000000  00000000  00002193  2**0
                  CONTENTS, READONLY, DEBUGGING, OCTETS
 15 .debug_aranges 00000088  00000000  00000000  00002590  2**3
                  CONTENTS, READONLY, DEBUGGING, OCTETS
 16 .debug_rnglists 0000005a  00000000  00000000  00002618  2**0
                  CONTENTS, READONLY, DEBUGGING, OCTETS
 17 .debug_macro  00015480  00000000  00000000  00002672  2**0
                  CONTENTS, READONLY, DEBUGGING, OCTETS
 18 .debug_line   00000ddb  00000000  00000000  00017af2  2**0
                  CONTENTS, READONLY, DEBUGGING, OCTETS
 19 .debug_str    0007483c  00000000  00000000  000188cd  2**0
                  CONTENTS, READONLY, DEBUGGING, OCTETS
 20 .comment      00000043  00000000  00000000  0008d109  2**0
                  CONTENTS, READONLY
 21 .debug_frame  00000120  00000000  00000000  0008d14c  2**2
                  CONTENTS, READONLY, DEBUGGING, OCTETS
 22 .debug_line_str 00000061  00000000  00000000  0008d26c  2**0
                  CONTENTS, READONLY, DEBUGGING, OCTETS

Disassembly of section .text:

08000188 <__do_global_dtors_aux>:
 8000188:	b510      	push	{r4, lr}
 800018a:	4c05      	ldr	r4, [pc, #20]	@ (80001a0 <__do_global_dtors_aux+0x18>)
 800018c:	7823      	ldrb	r3, [r4, #0]
 800018e:	b933      	cbnz	r3, 800019e <__do_global_dtors_aux+0x16>
 8000190:	4b04      	ldr	r3, [pc, #16]	@ (80001a4 <__do_global_dtors_aux+0x1c>)
 8000192:	b113      	cbz	r3, 800019a <__do_global_dtors_aux+0x12>
 8000194:	4804      	ldr	r0, [pc, #16]	@ (80001a8 <__do_global_dtors_aux+0x20>)
 8000196:	f3af 8000 	nop.w
 800019a:	2301      	movs	r3, #1
 800019c:	7023      	strb	r3, [r4, #0]
 800019e:	bd10      	pop	{r4, pc}
 80001a0:	20000000 	.word	0x20000000
 80001a4:	00000000 	.word	0x00000000
 80001a8:	0800051c 	.word	0x0800051c

080001ac <frame_dummy>:
 80001ac:	b508      	push	{r3, lr}
 80001ae:	4b03      	ldr	r3, [pc, #12]	@ (80001bc <frame_dummy+0x10>)
 80001b0:	b11b      	cbz	r3, 80001ba <frame_dummy+0xe>
 80001b2:	4903      	ldr	r1, [pc, #12]	@ (80001c0 <frame_dummy+0x14>)
 80001b4:	4803      	ldr	r0, [pc, #12]	@ (80001c4 <frame_dummy+0x18>)
 80001b6:	f3af 8000 	nop.w
 80001ba:	bd08      	pop	{r3, pc}
 80001bc:	00000000 	.word	0x00000000
 80001c0:	20000004 	.word	0x20000004
 80001c4:	0800051c 	.word	0x0800051c

080001c8 <_ZN9POWER_LEDC1EPV12GPIO_TypeDef>:
    float low_th;
    float mid_th;
    float high_th;

public:
    POWER_LED(volatile GPIO_TypeDef* l_GPIOx)
 80001c8:	b480      	push	{r7}
 80001ca:	b083      	sub	sp, #12
 80001cc:	af00      	add	r7, sp, #0
 80001ce:	6078      	str	r0, [r7, #4]
 80001d0:	6039      	str	r1, [r7, #0]
    {
        l_pGPIOx = l_GPIOx;
 80001d2:	687b      	ldr	r3, [r7, #4]
 80001d4:	683a      	ldr	r2, [r7, #0]
 80001d6:	601a      	str	r2, [r3, #0]

        // Assign pins (as per your manual code)
        green_pin  = 12;
 80001d8:	687b      	ldr	r3, [r7, #4]
 80001da:	220c      	movs	r2, #12
 80001dc:	711a      	strb	r2, [r3, #4]
        orange_pin = 13;
 80001de:	687b      	ldr	r3, [r7, #4]
 80001e0:	220d      	movs	r2, #13
 80001e2:	715a      	strb	r2, [r3, #5]
        red_pin    = 14;
 80001e4:	687b      	ldr	r3, [r7, #4]
 80001e6:	220e      	movs	r2, #14
 80001e8:	719a      	strb	r2, [r3, #6]
        blue_pin   = 15;
 80001ea:	687b      	ldr	r3, [r7, #4]
 80001ec:	220f      	movs	r2, #15
 80001ee:	71da      	strb	r2, [r3, #7]

        // Enable clock
        if (l_pGPIOx == GPIOD)
 80001f0:	687b      	ldr	r3, [r7, #4]
 80001f2:	681b      	ldr	r3, [r3, #0]
 80001f4:	4a2a      	ldr	r2, [pc, #168]	@ (80002a0 <_ZN9POWER_LEDC1EPV12GPIO_TypeDef+0xd8>)
 80001f6:	4293      	cmp	r3, r2
 80001f8:	d105      	bne.n	8000206 <_ZN9POWER_LEDC1EPV12GPIO_TypeDef+0x3e>
            RCC->AHB1ENR |= (1 << 3);
 80001fa:	4b2a      	ldr	r3, [pc, #168]	@ (80002a4 <_ZN9POWER_LEDC1EPV12GPIO_TypeDef+0xdc>)
 80001fc:	6b1b      	ldr	r3, [r3, #48]	@ 0x30
 80001fe:	4a29      	ldr	r2, [pc, #164]	@ (80002a4 <_ZN9POWER_LEDC1EPV12GPIO_TypeDef+0xdc>)
 8000200:	f043 0308 	orr.w	r3, r3, #8
 8000204:	6313      	str	r3, [r2, #48]	@ 0x30

        // Configure all pins as output
        l_pGPIOx->MODER &= ~( (3 << (green_pin*2)) |
 8000206:	687b      	ldr	r3, [r7, #4]
 8000208:	681b      	ldr	r3, [r3, #0]
 800020a:	681a      	ldr	r2, [r3, #0]
 800020c:	687b      	ldr	r3, [r7, #4]
 800020e:	791b      	ldrb	r3, [r3, #4]
 8000210:	005b      	lsls	r3, r3, #1
 8000212:	2103      	movs	r1, #3
 8000214:	4099      	lsls	r1, r3
                              (3 << (orange_pin*2)) |
 8000216:	687b      	ldr	r3, [r7, #4]
 8000218:	795b      	ldrb	r3, [r3, #5]
 800021a:	005b      	lsls	r3, r3, #1
 800021c:	2003      	movs	r0, #3
 800021e:	fa00 f303 	lsl.w	r3, r0, r3
        l_pGPIOx->MODER &= ~( (3 << (green_pin*2)) |
 8000222:	4319      	orrs	r1, r3
                              (3 << (red_pin*2)) |
 8000224:	687b      	ldr	r3, [r7, #4]
 8000226:	799b      	ldrb	r3, [r3, #6]
 8000228:	005b      	lsls	r3, r3, #1
 800022a:	2003      	movs	r0, #3
 800022c:	fa00 f303 	lsl.w	r3, r0, r3
                              (3 << (orange_pin*2)) |
 8000230:	4319      	orrs	r1, r3
                              (3 << (blue_pin*2)) );
 8000232:	687b      	ldr	r3, [r7, #4]
 8000234:	79db      	ldrb	r3, [r3, #7]
 8000236:	005b      	lsls	r3, r3, #1
 8000238:	2003      	movs	r0, #3
 800023a:	fa00 f303 	lsl.w	r3, r0, r3
                              (3 << (red_pin*2)) |
 800023e:	430b      	orrs	r3, r1
        l_pGPIOx->MODER &= ~( (3 << (green_pin*2)) |
 8000240:	43db      	mvns	r3, r3
 8000242:	4619      	mov	r1, r3
 8000244:	687b      	ldr	r3, [r7, #4]
 8000246:	681b      	ldr	r3, [r3, #0]
 8000248:	400a      	ands	r2, r1
 800024a:	601a      	str	r2, [r3, #0]

        l_pGPIOx->MODER |=  ( (1 << (green_pin*2)) |
 800024c:	687b      	ldr	r3, [r7, #4]
 800024e:	681b      	ldr	r3, [r3, #0]
 8000250:	681a      	ldr	r2, [r3, #0]
 8000252:	687b      	ldr	r3, [r7, #4]
 8000254:	791b      	ldrb	r3, [r3, #4]
 8000256:	005b      	lsls	r3, r3, #1
 8000258:	2101      	movs	r1, #1
 800025a:	4099      	lsls	r1, r3
                              (1 << (orange_pin*2)) |
 800025c:	687b      	ldr	r3, [r7, #4]
 800025e:	795b      	ldrb	r3, [r3, #5]
 8000260:	005b      	lsls	r3, r3, #1
 8000262:	2001      	movs	r0, #1
 8000264:	fa00 f303 	lsl.w	r3, r0, r3
        l_pGPIOx->MODER |=  ( (1 << (green_pin*2)) |
 8000268:	4319      	orrs	r1, r3
                              (1 << (red_pin*2)) |
 800026a:	687b      	ldr	r3, [r7, #4]
 800026c:	799b      	ldrb	r3, [r3, #6]
 800026e:	005b      	lsls	r3, r3, #1
 8000270:	2001      	movs	r0, #1
 8000272:	fa00 f303 	lsl.w	r3, r0, r3
                              (1 << (orange_pin*2)) |
 8000276:	4319      	orrs	r1, r3
                              (1 << (blue_pin*2)) );
 8000278:	687b      	ldr	r3, [r7, #4]
 800027a:	79db      	ldrb	r3, [r3, #7]
 800027c:	005b      	lsls	r3, r3, #1
 800027e:	2001      	movs	r0, #1
 8000280:	fa00 f303 	lsl.w	r3, r0, r3
                              (1 << (red_pin*2)) |
 8000284:	430b      	orrs	r3, r1
 8000286:	4619      	mov	r1, r3
        l_pGPIOx->MODER |=  ( (1 << (green_pin*2)) |
 8000288:	687b      	ldr	r3, [r7, #4]
 800028a:	681b      	ldr	r3, [r3, #0]
 800028c:	430a      	orrs	r2, r1
 800028e:	601a      	str	r2, [r3, #0]
    }
 8000290:	687b      	ldr	r3, [r7, #4]
 8000292:	4618      	mov	r0, r3
 8000294:	370c      	adds	r7, #12
 8000296:	46bd      	mov	sp, r7
 8000298:	f85d 7b04 	ldr.w	r7, [sp], #4
 800029c:	4770      	bx	lr
 800029e:	bf00      	nop
 80002a0:	40020c00 	.word	0x40020c00
 80002a4:	40023800 	.word	0x40023800

080002a8 <main>:
#include <stdint.h>
#include "STM32F405xx.h"
#include "power_led.h"

int main(void)
{
 80002a8:	b580      	push	{r7, lr}
 80002aa:	b088      	sub	sp, #32
 80002ac:	af00      	add	r7, sp, #0
    POWER_LED led((GPIO_TypeDef*)GPIOD_BASE);
 80002ae:	1d3b      	adds	r3, r7, #4
 80002b0:	491c      	ldr	r1, [pc, #112]	@ (8000324 <main+0x7c>)
 80002b2:	4618      	mov	r0, r3
 80002b4:	f7ff ff88 	bl	80001c8 <_ZN9POWER_LEDC1EPV12GPIO_TypeDef>

    led.set_thresholds(5, 10, 20);
 80002b8:	1d3b      	adds	r3, r7, #4
 80002ba:	eeb3 1a04 	vmov.f32	s2, #52	@ 0x41a00000  20.0
 80002be:	eef2 0a04 	vmov.f32	s1, #36	@ 0x41200000  10.0
 80002c2:	eeb1 0a04 	vmov.f32	s0, #20	@ 0x40a00000  5.0
 80002c6:	4618      	mov	r0, r3
 80002c8:	f000 f82e 	bl	8000328 <_ZN9POWER_LED14set_thresholdsEfff>

    float value = 1.0;
 80002cc:	f04f 537e 	mov.w	r3, #1065353216	@ 0x3f800000
 80002d0:	61fb      	str	r3, [r7, #28]

    while (1)
    {

        value += 1.0;
 80002d2:	edd7 7a07 	vldr	s15, [r7, #28]
 80002d6:	eeb7 7a00 	vmov.f32	s14, #112	@ 0x3f800000  1.0
 80002da:	ee77 7a87 	vadd.f32	s15, s15, s14
 80002de:	edc7 7a07 	vstr	s15, [r7, #28]


        if (value > 10)
 80002e2:	edd7 7a07 	vldr	s15, [r7, #28]
 80002e6:	eeb2 7a04 	vmov.f32	s14, #36	@ 0x41200000  10.0
 80002ea:	eef4 7ac7 	vcmpe.f32	s15, s14
 80002ee:	eef1 fa10 	vmrs	APSR_nzcv, fpscr
 80002f2:	dd02      	ble.n	80002fa <main+0x52>
            value = 1.0;
 80002f4:	f04f 537e 	mov.w	r3, #1065353216	@ 0x3f800000
 80002f8:	61fb      	str	r3, [r7, #28]


        led.display(value, value);
 80002fa:	1d3b      	adds	r3, r7, #4
 80002fc:	edd7 0a07 	vldr	s1, [r7, #28]
 8000300:	ed97 0a07 	vldr	s0, [r7, #28]
 8000304:	4618      	mov	r0, r3
 8000306:	f000 f86b 	bl	80003e0 <_ZN9POWER_LED7displayEff>


        for ( int i = 0; i < 10000; i++);
 800030a:	2300      	movs	r3, #0
 800030c:	61bb      	str	r3, [r7, #24]
 800030e:	e002      	b.n	8000316 <main+0x6e>
 8000310:	69bb      	ldr	r3, [r7, #24]
 8000312:	3301      	adds	r3, #1
 8000314:	61bb      	str	r3, [r7, #24]
 8000316:	69bb      	ldr	r3, [r7, #24]
 8000318:	f242 720f 	movw	r2, #9999	@ 0x270f
 800031c:	4293      	cmp	r3, r2
 800031e:	ddf7      	ble.n	8000310 <main+0x68>
    }
 8000320:	e7d7      	b.n	80002d2 <main+0x2a>
 8000322:	bf00      	nop
 8000324:	40020c00 	.word	0x40020c00

08000328 <_ZN9POWER_LED14set_thresholdsEfff>:
#include "power_led.h"

void POWER_LED::set_thresholds(float low, float mid, float high)
{
 8000328:	b480      	push	{r7}
 800032a:	b085      	sub	sp, #20
 800032c:	af00      	add	r7, sp, #0
 800032e:	60f8      	str	r0, [r7, #12]
 8000330:	ed87 0a02 	vstr	s0, [r7, #8]
 8000334:	edc7 0a01 	vstr	s1, [r7, #4]
 8000338:	ed87 1a00 	vstr	s2, [r7]
    low_th  = low;
 800033c:	68fb      	ldr	r3, [r7, #12]
 800033e:	68ba      	ldr	r2, [r7, #8]
 8000340:	609a      	str	r2, [r3, #8]
    mid_th  = mid;
 8000342:	68fb      	ldr	r3, [r7, #12]
 8000344:	687a      	ldr	r2, [r7, #4]
 8000346:	60da      	str	r2, [r3, #12]
    high_th = high;
 8000348:	68fb      	ldr	r3, [r7, #12]
 800034a:	683a      	ldr	r2, [r7, #0]
 800034c:	611a      	str	r2, [r3, #16]
}
 800034e:	bf00      	nop
 8000350:	3714      	adds	r7, #20
 8000352:	46bd      	mov	sp, r7
 8000354:	f85d 7b04 	ldr.w	r7, [sp], #4
 8000358:	4770      	bx	lr

0800035a <_ZN9POWER_LED7all_offEv>:

void POWER_LED::all_off()
{
 800035a:	b480      	push	{r7}
 800035c:	b083      	sub	sp, #12
 800035e:	af00      	add	r7, sp, #0
 8000360:	6078      	str	r0, [r7, #4]
    l_pGPIOx->ODR &= ~( (1 << green_pin) |
 8000362:	687b      	ldr	r3, [r7, #4]
 8000364:	681b      	ldr	r3, [r3, #0]
 8000366:	695a      	ldr	r2, [r3, #20]
 8000368:	687b      	ldr	r3, [r7, #4]
 800036a:	791b      	ldrb	r3, [r3, #4]
 800036c:	4619      	mov	r1, r3
 800036e:	2301      	movs	r3, #1
 8000370:	fa03 f101 	lsl.w	r1, r3, r1
                        (1 << orange_pin) |
 8000374:	687b      	ldr	r3, [r7, #4]
 8000376:	795b      	ldrb	r3, [r3, #5]
 8000378:	4618      	mov	r0, r3
 800037a:	2301      	movs	r3, #1
 800037c:	4083      	lsls	r3, r0
    l_pGPIOx->ODR &= ~( (1 << green_pin) |
 800037e:	4319      	orrs	r1, r3
                        (1 << red_pin) |
 8000380:	687b      	ldr	r3, [r7, #4]
 8000382:	799b      	ldrb	r3, [r3, #6]
 8000384:	4618      	mov	r0, r3
 8000386:	2301      	movs	r3, #1
 8000388:	4083      	lsls	r3, r0
                        (1 << orange_pin) |
 800038a:	4319      	orrs	r1, r3
                        (1 << blue_pin) );
 800038c:	687b      	ldr	r3, [r7, #4]
 800038e:	79db      	ldrb	r3, [r3, #7]
 8000390:	4618      	mov	r0, r3
 8000392:	2301      	movs	r3, #1
 8000394:	4083      	lsls	r3, r0
                        (1 << red_pin) |
 8000396:	430b      	orrs	r3, r1
    l_pGPIOx->ODR &= ~( (1 << green_pin) |
 8000398:	43db      	mvns	r3, r3
 800039a:	4619      	mov	r1, r3
 800039c:	687b      	ldr	r3, [r7, #4]
 800039e:	681b      	ldr	r3, [r3, #0]
 80003a0:	400a      	ands	r2, r1
 80003a2:	615a      	str	r2, [r3, #20]
}
 80003a4:	bf00      	nop
 80003a6:	370c      	adds	r7, #12
 80003a8:	46bd      	mov	sp, r7
 80003aa:	f85d 7b04 	ldr.w	r7, [sp], #4
 80003ae:	4770      	bx	lr

080003b0 <_ZN9POWER_LED2onEh>:

void POWER_LED::on(uint8_t pin)
{
 80003b0:	b480      	push	{r7}
 80003b2:	b083      	sub	sp, #12
 80003b4:	af00      	add	r7, sp, #0
 80003b6:	6078      	str	r0, [r7, #4]
 80003b8:	460b      	mov	r3, r1
 80003ba:	70fb      	strb	r3, [r7, #3]
    l_pGPIOx->ODR |= (1 << pin);
 80003bc:	687b      	ldr	r3, [r7, #4]
 80003be:	681b      	ldr	r3, [r3, #0]
 80003c0:	695a      	ldr	r2, [r3, #20]
 80003c2:	78fb      	ldrb	r3, [r7, #3]
 80003c4:	2101      	movs	r1, #1
 80003c6:	fa01 f303 	lsl.w	r3, r1, r3
 80003ca:	4619      	mov	r1, r3
 80003cc:	687b      	ldr	r3, [r7, #4]
 80003ce:	681b      	ldr	r3, [r3, #0]
 80003d0:	430a      	orrs	r2, r1
 80003d2:	615a      	str	r2, [r3, #20]
}
 80003d4:	bf00      	nop
 80003d6:	370c      	adds	r7, #12
 80003d8:	46bd      	mov	sp, r7
 80003da:	f85d 7b04 	ldr.w	r7, [sp], #4
 80003de:	4770      	bx	lr

080003e0 <_ZN9POWER_LED7displayEff>:

void POWER_LED::display(float voltage, float current)
{
 80003e0:	b580      	push	{r7, lr}
 80003e2:	b086      	sub	sp, #24
 80003e4:	af00      	add	r7, sp, #0
 80003e6:	60f8      	str	r0, [r7, #12]
 80003e8:	ed87 0a02 	vstr	s0, [r7, #8]
 80003ec:	edc7 0a01 	vstr	s1, [r7, #4]
    float power = voltage * current;
 80003f0:	ed97 7a02 	vldr	s14, [r7, #8]
 80003f4:	edd7 7a01 	vldr	s15, [r7, #4]
 80003f8:	ee67 7a27 	vmul.f32	s15, s14, s15
 80003fc:	edc7 7a05 	vstr	s15, [r7, #20]

    all_off();
 8000400:	68f8      	ldr	r0, [r7, #12]
 8000402:	f7ff ffaa 	bl	800035a <_ZN9POWER_LED7all_offEv>

    if (power < low_th)
 8000406:	68fb      	ldr	r3, [r7, #12]
 8000408:	edd3 7a02 	vldr	s15, [r3, #8]
 800040c:	ed97 7a05 	vldr	s14, [r7, #20]
 8000410:	eeb4 7ae7 	vcmpe.f32	s14, s15
 8000414:	eef1 fa10 	vmrs	APSR_nzcv, fpscr
 8000418:	d506      	bpl.n	8000428 <_ZN9POWER_LED7displayEff+0x48>
    {
        on(green_pin);
 800041a:	68fb      	ldr	r3, [r7, #12]
 800041c:	791b      	ldrb	r3, [r3, #4]
 800041e:	4619      	mov	r1, r3
 8000420:	68f8      	ldr	r0, [r7, #12]
 8000422:	f7ff ffc5 	bl	80003b0 <_ZN9POWER_LED2onEh>
    }
    else
    {
        on(red_pin);
    }
}
 8000426:	e027      	b.n	8000478 <_ZN9POWER_LED7displayEff+0x98>
    else if (power < mid_th)
 8000428:	68fb      	ldr	r3, [r7, #12]
 800042a:	edd3 7a03 	vldr	s15, [r3, #12]
 800042e:	ed97 7a05 	vldr	s14, [r7, #20]
 8000432:	eeb4 7ae7 	vcmpe.f32	s14, s15
 8000436:	eef1 fa10 	vmrs	APSR_nzcv, fpscr
 800043a:	d506      	bpl.n	800044a <_ZN9POWER_LED7displayEff+0x6a>
        on(blue_pin);
 800043c:	68fb      	ldr	r3, [r7, #12]
 800043e:	79db      	ldrb	r3, [r3, #7]
 8000440:	4619      	mov	r1, r3
 8000442:	68f8      	ldr	r0, [r7, #12]
 8000444:	f7ff ffb4 	bl	80003b0 <_ZN9POWER_LED2onEh>
}
 8000448:	e016      	b.n	8000478 <_ZN9POWER_LED7displayEff+0x98>
    else if (power < high_th)
 800044a:	68fb      	ldr	r3, [r7, #12]
 800044c:	edd3 7a04 	vldr	s15, [r3, #16]
 8000450:	ed97 7a05 	vldr	s14, [r7, #20]
 8000454:	eeb4 7ae7 	vcmpe.f32	s14, s15
 8000458:	eef1 fa10 	vmrs	APSR_nzcv, fpscr
 800045c:	d506      	bpl.n	800046c <_ZN9POWER_LED7displayEff+0x8c>
        on(orange_pin);
 800045e:	68fb      	ldr	r3, [r7, #12]
 8000460:	795b      	ldrb	r3, [r3, #5]
 8000462:	4619      	mov	r1, r3
 8000464:	68f8      	ldr	r0, [r7, #12]
 8000466:	f7ff ffa3 	bl	80003b0 <_ZN9POWER_LED2onEh>
}
 800046a:	e005      	b.n	8000478 <_ZN9POWER_LED7displayEff+0x98>
        on(red_pin);
 800046c:	68fb      	ldr	r3, [r7, #12]
 800046e:	799b      	ldrb	r3, [r3, #6]
 8000470:	4619      	mov	r1, r3
 8000472:	68f8      	ldr	r0, [r7, #12]
 8000474:	f7ff ff9c 	bl	80003b0 <_ZN9POWER_LED2onEh>
}
 8000478:	bf00      	nop
 800047a:	3718      	adds	r7, #24
 800047c:	46bd      	mov	sp, r7
 800047e:	bd80      	pop	{r7, pc}

08000480 <Reset_Handler>:

  .section .text.Reset_Handler
  .weak Reset_Handler
  .type Reset_Handler, %function
Reset_Handler:
  ldr   r0, =_estack
 8000480:	480d      	ldr	r0, [pc, #52]	@ (80004b8 <LoopForever+0x2>)
  mov   sp, r0          /* set stack pointer */
 8000482:	4685      	mov	sp, r0
/* Call the clock system initialization function.*/
  bl  SystemInit
 8000484:	f3af 8000 	nop.w

/* Copy the data segment initializers from flash to SRAM */
  ldr r0, =_sdata
 8000488:	480c      	ldr	r0, [pc, #48]	@ (80004bc <LoopForever+0x6>)
  ldr r1, =_edata
 800048a:	490d      	ldr	r1, [pc, #52]	@ (80004c0 <LoopForever+0xa>)
  ldr r2, =_sidata
 800048c:	4a0d      	ldr	r2, [pc, #52]	@ (80004c4 <LoopForever+0xe>)
  movs r3, #0
 800048e:	2300      	movs	r3, #0
  b LoopCopyDataInit
 8000490:	e002      	b.n	8000498 <LoopCopyDataInit>

08000492 <CopyDataInit>:

CopyDataInit:
  ldr r4, [r2, r3]
 8000492:	58d4      	ldr	r4, [r2, r3]
  str r4, [r0, r3]
 8000494:	50c4      	str	r4, [r0, r3]
  adds r3, r3, #4
 8000496:	3304      	adds	r3, #4

08000498 <LoopCopyDataInit>:

LoopCopyDataInit:
  adds r4, r0, r3
 8000498:	18c4      	adds	r4, r0, r3
  cmp r4, r1
 800049a:	428c      	cmp	r4, r1
  bcc CopyDataInit
 800049c:	d3f9      	bcc.n	8000492 <CopyDataInit>

/* Zero fill the bss segment. */
  ldr r2, =_sbss
 800049e:	4a0a      	ldr	r2, [pc, #40]	@ (80004c8 <LoopForever+0x12>)
  ldr r4, =_ebss
 80004a0:	4c0a      	ldr	r4, [pc, #40]	@ (80004cc <LoopForever+0x16>)
  movs r3, #0
 80004a2:	2300      	movs	r3, #0
  b LoopFillZerobss
 80004a4:	e001      	b.n	80004aa <LoopFillZerobss>

080004a6 <FillZerobss>:

FillZerobss:
  str  r3, [r2]
 80004a6:	6013      	str	r3, [r2, #0]
  adds r2, r2, #4
 80004a8:	3204      	adds	r2, #4

080004aa <LoopFillZerobss>:

LoopFillZerobss:
  cmp r2, r4
 80004aa:	42a2      	cmp	r2, r4
  bcc FillZerobss
 80004ac:	d3fb      	bcc.n	80004a6 <FillZerobss>


/* Call static constructors */
  bl __libc_init_array
 80004ae:	f000 f811 	bl	80004d4 <__libc_init_array>
/* Call the application's entry point.*/

  bl main
 80004b2:	f7ff fef9 	bl	80002a8 <main>

080004b6 <LoopForever>:

LoopForever:
  b LoopForever
 80004b6:	e7fe      	b.n	80004b6 <LoopForever>
  ldr   r0, =_estack
 80004b8:	20020000 	.word	0x20020000
  ldr r0, =_sdata
 80004bc:	20000000 	.word	0x20000000
  ldr r1, =_edata
 80004c0:	20000000 	.word	0x20000000
  ldr r2, =_sidata
 80004c4:	0800053c 	.word	0x0800053c
  ldr r2, =_sbss
 80004c8:	20000000 	.word	0x20000000
  ldr r4, =_ebss
 80004cc:	2000001c 	.word	0x2000001c

080004d0 <ADC_IRQHandler>:
 * @retval : None
*/
  .section .text.Default_Handler,"ax",%progbits
Default_Handler:
Infinite_Loop:
  b Infinite_Loop
 80004d0:	e7fe      	b.n	80004d0 <ADC_IRQHandler>
	...

080004d4 <__libc_init_array>:
 80004d4:	b570      	push	{r4, r5, r6, lr}
 80004d6:	4b0d      	ldr	r3, [pc, #52]	@ (800050c <__libc_init_array+0x38>)
 80004d8:	4d0d      	ldr	r5, [pc, #52]	@ (8000510 <__libc_init_array+0x3c>)
 80004da:	1b5b      	subs	r3, r3, r5
 80004dc:	109c      	asrs	r4, r3, #2
 80004de:	2600      	movs	r6, #0
 80004e0:	42a6      	cmp	r6, r4
 80004e2:	d109      	bne.n	80004f8 <__libc_init_array+0x24>
 80004e4:	f000 f81a 	bl	800051c <_init>
 80004e8:	4d0a      	ldr	r5, [pc, #40]	@ (8000514 <__libc_init_array+0x40>)
 80004ea:	4b0b      	ldr	r3, [pc, #44]	@ (8000518 <__libc_init_array+0x44>)
 80004ec:	1b5b      	subs	r3, r3, r5
 80004ee:	109c      	asrs	r4, r3, #2
 80004f0:	2600      	movs	r6, #0
 80004f2:	42a6      	cmp	r6, r4
 80004f4:	d105      	bne.n	8000502 <__libc_init_array+0x2e>
 80004f6:	bd70      	pop	{r4, r5, r6, pc}
 80004f8:	f855 3b04 	ldr.w	r3, [r5], #4
 80004fc:	4798      	blx	r3
 80004fe:	3601      	adds	r6, #1
 8000500:	e7ee      	b.n	80004e0 <__libc_init_array+0xc>
 8000502:	f855 3b04 	ldr.w	r3, [r5], #4
 8000506:	4798      	blx	r3
 8000508:	3601      	adds	r6, #1
 800050a:	e7f2      	b.n	80004f2 <__libc_init_array+0x1e>
 800050c:	08000534 	.word	0x08000534
 8000510:	08000534 	.word	0x08000534
 8000514:	08000534 	.word	0x08000534
 8000518:	08000538 	.word	0x08000538

0800051c <_init>:
 800051c:	b5f8      	push	{r3, r4, r5, r6, r7, lr}
 800051e:	bf00      	nop
 8000520:	bcf8      	pop	{r3, r4, r5, r6, r7}
 8000522:	bc08      	pop	{r3}
 8000524:	469e      	mov	lr, r3
 8000526:	4770      	bx	lr

08000528 <_fini>:
 8000528:	b5f8      	push	{r3, r4, r5, r6, r7, lr}
 800052a:	bf00      	nop
 800052c:	bcf8      	pop	{r3, r4, r5, r6, r7}
 800052e:	bc08      	pop	{r3}
 8000530:	469e      	mov	lr, r3
 8000532:	4770      	bx	lr
